target datalayout = "e-m:e-p270:32:32-p271:32:32-p272:64:64-i64:64-i128:128-f80:128-n8:16:32:64-S128"
target triple = "x86_64-unknown-linux-gnu"

%"class.sat::binspr" = type <{ ptr, %class.scoped_ptr.38, i32, i32, %class.vector.39, i32, i32, %class.svector.14, %class.svector.14, %class.svector.26, %class.svector.26, i32, i32, i32, i32, i32, [4 x i32], [5 x i32], [5 x i32], [4 x i8] }>
%class.scoped_ptr.38 = type { ptr }
%class.vector.39 = type { ptr }
%class.svector.14 = type { %class.vector.15 }
%class.vector.15 = type { ptr }
%class.svector.26 = type { %class.vector.27 }
%class.vector.27 = type { ptr }

; Function Attrs: mustprogress nounwind uwtable
define hidden void @_ZN3sat6binspr11add_touchedEv(ptr noundef nonnull align 8 dereferenceable(148) %this) #4 align 2 {
entry:
  %this.addr = alloca ptr, align 8
  %mask = alloca i32, align 4
  %i = alloca i32, align 4
  store ptr %this, ptr %this.addr, align 8
  %this1 = load ptr, ptr %this.addr, align 8
  store i32 0, ptr %mask, align 4
  store i32 0, ptr %i, align 4
  br label %for.cond

for.cond:                                         ; preds = %for.inc, %entry
  %0 = load i32, ptr %i, align 4
  %cmp = icmp ult i32 %0, 4
  br i1 %cmp, label %for.body, label %for.end

for.body:                                         ; preds = %for.cond
  %m_vals = getelementptr inbounds %"class.sat::binspr", ptr %this1, i32 0, i32 16
  %1 = load i32, ptr %i, align 4
  %idxprom = zext i32 %1 to i64
  %arrayidx = getelementptr inbounds [4 x i32], ptr %m_vals, i64 0, i64 %idxprom
  %2 = load i32, ptr %arrayidx, align 4
  switch i32 %2, label %sw.default [
    i32 1, label %sw.bb
    i32 -1, label %sw.bb4
  ]

sw.bb:                                            ; preds = %for.body
  %m_true = getelementptr inbounds %"class.sat::binspr", ptr %this1, i32 0, i32 17
  %3 = load i32, ptr %i, align 4
  %idxprom2 = zext i32 %3 to i64
  %arrayidx3 = getelementptr inbounds [5 x i32], ptr %m_true, i64 0, i64 %idxprom2
  %4 = load i32, ptr %arrayidx3, align 4
  %5 = load i32, ptr %mask, align 4
  %or = or i32 %5, %4
  store i32 %or, ptr %mask, align 4
  br label %sw.epilog

sw.bb4:                                           ; preds = %for.body
  %m_false = getelementptr inbounds %"class.sat::binspr", ptr %this1, i32 0, i32 18
  %6 = load i32, ptr %i, align 4
  %idxprom5 = zext i32 %6 to i64
  %arrayidx6 = getelementptr inbounds [5 x i32], ptr %m_false, i64 0, i64 %idxprom5
  %7 = load i32, ptr %arrayidx6, align 4
  %8 = load i32, ptr %mask, align 4
  %or7 = or i32 %8, %7
  store i32 %or7, ptr %mask, align 4
  br label %sw.epilog

sw.default:                                       ; preds = %for.body
  br label %sw.epilog

sw.epilog:                                        ; preds = %sw.default, %sw.bb4, %sw.bb
  br label %for.inc

for.inc:                                          ; preds = %sw.epilog
  %9 = load i32, ptr %i, align 4
  %inc = add i32 %9, 1
  store i32 %inc, ptr %i, align 4
  br label %for.cond, !llvm.loop !11

for.end:                                          ; preds = %for.cond
  %10 = load i32, ptr %mask, align 4
  %m_state = getelementptr inbounds %"class.sat::binspr", ptr %this1, i32 0, i32 11
  %11 = load i32, ptr %m_state, align 8
  %and = and i32 %11, %10
  store i32 %and, ptr %m_state, align 8
  ret void
}