; Function Attrs: mustprogress nofree norecurse nosync nounwind memory(argmem: readwrite) uwtable
define hidden void @_ZN3sat6binspr11add_touchedEv(ptr nocapture noundef nonnull align 8 dereferenceable(148) %this) local_unnamed_addr #8 align 2 {
entry:
  %m_vals = getelementptr inbounds i8, ptr %this, i64 92
  br label %for.body

for.body:                                         ; preds = %entry, %for.inc
  %indvars.iv = phi i64 [ 0, %entry ], [ %indvars.iv.next, %for.inc ]
  %mask.07 = phi i32 [ 0, %entry ], [ %mask.1, %for.inc ]
  %arrayidx = getelementptr inbounds [4 x i32], ptr %m_vals, i64 0, i64 %indvars.iv
  %0 = load i32, ptr %arrayidx, align 4
  switch i32 %0, label %for.inc [
    i32 1, label %for.inc.sink.split
    i32 -1, label %sw.bb4
  ]

sw.bb4:                                           ; preds = %for.body
  br label %for.inc.sink.split

for.inc.sink.split:                               ; preds = %for.body, %sw.bb4
  %1 = phi i64 [ 128, %sw.bb4 ], [ 108, %for.body ]
  %2 = getelementptr inbounds i8, ptr %this, i64 %1
  %arrayidx3 = getelementptr inbounds [5 x i32], ptr %2, i64 0, i64 %indvars.iv
  %3 = load i32, ptr %arrayidx3, align 4
  %or = or i32 %3, %mask.07
  br label %for.inc

for.inc:                                          ; preds = %for.inc.sink.split, %for.body
  %mask.1 = phi i32 [ %mask.07, %for.body ], [ %or, %for.inc.sink.split ]
  %indvars.iv.next = add nuw nsw i64 %indvars.iv, 1
  %exitcond.not = icmp eq i64 %indvars.iv.next, 4
  br i1 %exitcond.not, label %for.end, label %for.body, !llvm.loop !12

for.end:                                          ; preds = %for.inc
  %m_state = getelementptr inbounds i8, ptr %this, i64 72
  %4 = load i32, ptr %m_state, align 8
  %and = and i32 %4, %mask.1
  store i32 %and, ptr %m_state, align 8
  ret void
}